; Function Attrs: mustprogress nofree norecurse nosync nounwind willreturn memory(none) uwtable
define noundef range(i32 0, 2) i32 @_ZN6duckdb16utf8proc_isupperEi(i32 noundef %0) local_unnamed_addr #0 {
  %or.cond.i = icmp ugt i32 %0, 1114111
  br i1 %or.cond.i, label %_ZN6duckdb21utf8proc_get_propertyEi.exit, label %2

2:                                                ; preds = %1
  %3 = lshr i32 %0, 8
  %4 = zext nneg i32 %3 to i64
  %5 = getelementptr inbounds nuw [4352 x i16], ptr @_ZN6duckdbL20utf8proc_stage1tableE, i64 0, i64 %4
  %6 = load i16, ptr %5, align 2, !tbaa !8
  %7 = zext i16 %6 to i32
  %8 = and i32 %0, 255
  %9 = add nuw nsw i32 %8, %7
  %10 = zext nneg i32 %9 to i64
  %11 = getelementptr inbounds nuw [44800 x i16], ptr @_ZN6duckdbL20utf8proc_stage2tableE, i64 0, i64 %10
  %12 = load i16, ptr %11, align 2, !tbaa !8
  %13 = zext i16 %12 to i64
  %14 = getelementptr inbounds nuw %"struct.duckdb::utf8proc_property_struct", ptr @_ZN6duckdbL19utf8proc_propertiesE, i64 %13
  br label %_ZN6duckdb21utf8proc_get_propertyEi.exit

_ZN6duckdb21utf8proc_get_propertyEi.exit:         ; preds = %1, %2
  %15 = phi ptr [ %14, %2 ], [ @_ZN6duckdbL19utf8proc_propertiesE, %1 ]
  %16 = getelementptr inbounds nuw i8, ptr %15, i64 14
  %17 = load i16, ptr %16, align 2, !tbaa !10
  %18 = getelementptr inbounds nuw i8, ptr %15, i64 12
  %19 = load i16, ptr %18, align 4, !tbaa !12
  %20 = icmp eq i16 %19, -1
  %21 = icmp ne i16 %17, -1
  %or.cond = and i1 %21, %20
  br i1 %or.cond, label %22, label %26

22:                                               ; preds = %_ZN6duckdb21utf8proc_get_propertyEi.exit
  %23 = load i16, ptr %15, align 4, !tbaa !14
  %24 = icmp ne i16 %23, 3
  %25 = zext i1 %24 to i32
  br label %26

26:                                               ; preds = %22, %_ZN6duckdb21utf8proc_get_propertyEi.exit
  %27 = phi i32 [ 0, %_ZN6duckdb21utf8proc_get_propertyEi.exit ], [ %25, %22 ]
  ret i32 %27
}